; Function Attrs: nounwind uwtable
define i64 @ffurl_size(ptr noundef %0) local_unnamed_addr #3 {
  %2 = getelementptr inbounds nuw i8, ptr %0, i64 8
  %3 = load ptr, ptr %2, align 8, !tbaa !21
  %4 = getelementptr inbounds nuw i8, ptr %3, i64 56
  %5 = load ptr, ptr %4, align 8, !tbaa !40
  %.not.i.i = icmp eq ptr %5, null
  br i1 %.not.i.i, label %ffurl_seek.exit20, label %ffurl_seek.exit

ffurl_seek.exit:                                  ; preds = %1
  %6 = tail call i64 %5(ptr noundef nonnull %0, i64 noundef 0, i32 noundef 65536) #12
  %7 = icmp slt i64 %6, 0
  br i1 %7, label %ffurl_seek.exit.thread, label %ffurl_seek.exit20

ffurl_seek.exit.thread:                           ; preds = %ffurl_seek.exit
  %.pre = load ptr, ptr %2, align 8, !tbaa !21
  %.phi.trans.insert = getelementptr inbounds nuw i8, ptr %.pre, i64 56
  %.pre23 = load ptr, ptr %.phi.trans.insert, align 8, !tbaa !40
  %.not.i.i12 = icmp eq ptr %.pre23, null
  br i1 %.not.i.i12, label %ffurl_seek.exit20, label %ffurl_seek.exit14

ffurl_seek.exit14:                                ; preds = %ffurl_seek.exit.thread
  %8 = tail call i64 %.pre23(ptr noundef nonnull %0, i64 noundef 0, i32 noundef 1) #12
  %.pre24 = load ptr, ptr %2, align 8, !tbaa !21
  %.phi.trans.insert25 = getelementptr inbounds nuw i8, ptr %.pre24, i64 56
  %.pre26 = load ptr, ptr %.phi.trans.insert25, align 8, !tbaa !40
  %.not.i.i15 = icmp eq ptr %.pre26, null
  br i1 %.not.i.i15, label %ffurl_seek.exit20, label %ffurl_seek.exit17

ffurl_seek.exit17:                                ; preds = %ffurl_seek.exit14
  %9 = tail call i64 %.pre26(ptr noundef nonnull %0, i64 noundef -1, i32 noundef 2) #12
  %10 = icmp slt i64 %9, 0
  br i1 %10, label %ffurl_seek.exit20, label %11

11:                                               ; preds = %ffurl_seek.exit17
  %12 = add nuw nsw i64 %9, 1
  %13 = load ptr, ptr %2, align 8, !tbaa !21
  %14 = getelementptr inbounds nuw i8, ptr %13, i64 56
  %15 = load ptr, ptr %14, align 8, !tbaa !40
  %.not.i.i18 = icmp eq ptr %15, null
  br i1 %.not.i.i18, label %ffurl_seek.exit20, label %16

16:                                               ; preds = %11
  %17 = tail call i64 %15(ptr noundef nonnull %0, i64 noundef %8, i32 noundef 0) #12
  br label %ffurl_seek.exit20

ffurl_seek.exit20:                                ; preds = %1, %ffurl_seek.exit.thread, %ffurl_seek.exit14, %16, %11, %ffurl_seek.exit, %ffurl_seek.exit17
  %.09 = phi i64 [ %9, %ffurl_seek.exit17 ], [ %6, %ffurl_seek.exit ], [ %12, %11 ], [ %12, %16 ], [ -38, %ffurl_seek.exit14 ], [ -38, %ffurl_seek.exit.thread ], [ -38, %1 ]
  ret i64 %.09
}